; Function Attrs: mustprogress nofree norecurse nosync nounwind willreturn memory(none) uwtable
define range(i32 0, 2) i32 @HUF_selectDecoder(i64 noundef %0, i64 noundef %1) local_unnamed_addr #6 {
  %.not = icmp ult i64 %1, %0
  br i1 %.not, label %3, label %7

3:                                                ; preds = %2
  %4 = shl i64 %1, 4
  %5 = udiv i64 %4, %0
  %6 = and i64 %5, 4294967295
  br label %7

7:                                                ; preds = %2, %3
  %8 = phi i64 [ %6, %3 ], [ 15, %2 ]
  %9 = lshr i64 %0, 8
  %10 = trunc i64 %9 to i32
  %11 = getelementptr inbounds nuw [16 x [2 x %struct.algo_time_t]], ptr @algoTime, i64 0, i64 %8
  %12 = load i32, ptr %11, align 16, !tbaa !52
  %13 = getelementptr inbounds nuw i8, ptr %11, i64 4
  %14 = load i32, ptr %13, align 4, !tbaa !54
  %15 = mul i32 %14, %10
  %16 = add i32 %15, %12
  %17 = getelementptr inbounds nuw i8, ptr %11, i64 8
  %18 = load i32, ptr %17, align 8, !tbaa !52
  %19 = getelementptr inbounds nuw i8, ptr %11, i64 12
  %20 = load i32, ptr %19, align 4, !tbaa !54
  %21 = mul i32 %20, %10
  %22 = add i32 %21, %18
  %23 = lshr i32 %22, 5
  %24 = add i32 %23, %22
  %25 = icmp ult i32 %24, %16
  %26 = zext i1 %25 to i32
  ret i32 %26
}